; Function Attrs: mustprogress uwtable
define void @_ZN4SHA19from_fileERKNSt7__cxx1112basic_stringIcSt11char_traitsIcESaIcEEE(ptr dead_on_unwind noalias writable sret(%"class.std::__cxx11::basic_string") align 8 %0, ptr noundef nonnull readonly align 8 captures(none) dereferenceable(32) %1) local_unnamed_addr #3 align 2 personality ptr @__gxx_personality_v0 {
  %3 = alloca %"class.std::basic_ifstream", align 8
  %4 = alloca %class.SHA1, align 8
  call void @llvm.lifetime.start.p0(i64 520, ptr nonnull %3) #17
  %5 = load ptr, ptr %1, align 8, !tbaa !20
  call void @_ZNSt14basic_ifstreamIcSt11char_traitsIcEEC1EPKcSt13_Ios_Openmode(ptr noundef nonnull align 8 dereferenceable(256) %3, ptr noundef %5, i32 noundef 4)
  call void @llvm.lifetime.start.p0(i64 64, ptr nonnull %4) #17
  invoke void @_ZN4SHA1C1Ev(ptr noundef nonnull align 8 dereferenceable(64) %4)
          to label %6 unwind label %18

6:                                                ; preds = %2
  invoke void @_ZN4SHA16updateERSi(ptr noundef nonnull align 8 dereferenceable(64) %4, ptr noundef nonnull align 8 dereferenceable(16) %3)
          to label %7 unwind label %20

7:                                                ; preds = %6
  invoke void @_ZN4SHA15finalB5cxx11Ev(ptr dead_on_unwind writable sret(%"class.std::__cxx11::basic_string") align 8 %0, ptr noundef nonnull align 8 dereferenceable(64) %4)
          to label %8 unwind label %20

8:                                                ; preds = %7
  %9 = getelementptr inbounds nuw i8, ptr %4, i64 24
  %10 = load ptr, ptr %9, align 8, !tbaa !20
  %11 = getelementptr inbounds nuw i8, ptr %4, i64 40
  %12 = icmp eq ptr %10, %11
  br i1 %12, label %_ZNKSt7__cxx1112basic_stringIcSt11char_traitsIcESaIcEE11_M_is_localEv.exit.thread.i.i.i, label %_ZNKSt7__cxx1112basic_stringIcSt11char_traitsIcESaIcEE11_M_is_localEv.exit.i.i.i

_ZNKSt7__cxx1112basic_stringIcSt11char_traitsIcESaIcEE11_M_is_localEv.exit.thread.i.i.i: ; preds = %8
  %13 = getelementptr inbounds nuw i8, ptr %4, i64 32
  %14 = load i64, ptr %13, align 8, !tbaa !12
  %15 = icmp ult i64 %14, 16
  call void @llvm.assume(i1 %15)
  br label %_ZN4SHA1D2Ev.exit

_ZNKSt7__cxx1112basic_stringIcSt11char_traitsIcESaIcEE11_M_is_localEv.exit.i.i.i: ; preds = %8
  %16 = load i64, ptr %11, align 8, !tbaa !15
  %17 = add i64 %16, 1
  call void @_ZdlPvm(ptr noundef %10, i64 noundef %17) #16
  br label %_ZN4SHA1D2Ev.exit

_ZN4SHA1D2Ev.exit:                                ; preds = %_ZNKSt7__cxx1112basic_stringIcSt11char_traitsIcESaIcEE11_M_is_localEv.exit.thread.i.i.i, %_ZNKSt7__cxx1112basic_stringIcSt11char_traitsIcESaIcEE11_M_is_localEv.exit.i.i.i
  call void @llvm.lifetime.end.p0(i64 64, ptr nonnull %4) #17
  call void @_ZNSt14basic_ifstreamIcSt11char_traitsIcEED1Ev(ptr noundef nonnull align 8 dereferenceable(256) %3) #17
  call void @llvm.lifetime.end.p0(i64 520, ptr nonnull %3) #17
  ret void

18:                                               ; preds = %2
  %19 = landingpad { ptr, i32 }
          cleanup
  br label %_ZN4SHA1D2Ev.exit6

20:                                               ; preds = %7, %6
  %21 = landingpad { ptr, i32 }
          cleanup
  %22 = getelementptr inbounds nuw i8, ptr %4, i64 24
  %23 = load ptr, ptr %22, align 8, !tbaa !20
  %24 = getelementptr inbounds nuw i8, ptr %4, i64 40
  %25 = icmp eq ptr %23, %24
  br i1 %25, label %_ZNKSt7__cxx1112basic_stringIcSt11char_traitsIcESaIcEE11_M_is_localEv.exit.thread.i.i.i5, label %_ZNKSt7__cxx1112basic_stringIcSt11char_traitsIcESaIcEE11_M_is_localEv.exit.i.i.i4

_ZNKSt7__cxx1112basic_stringIcSt11char_traitsIcESaIcEE11_M_is_localEv.exit.thread.i.i.i5: ; preds = %20
  %26 = getelementptr inbounds nuw i8, ptr %4, i64 32
  %27 = load i64, ptr %26, align 8, !tbaa !12
  %28 = icmp ult i64 %27, 16
  call void @llvm.assume(i1 %28)
  br label %_ZN4SHA1D2Ev.exit6

_ZNKSt7__cxx1112basic_stringIcSt11char_traitsIcESaIcEE11_M_is_localEv.exit.i.i.i4: ; preds = %20
  %29 = load i64, ptr %24, align 8, !tbaa !15
  %30 = add i64 %29, 1
  call void @_ZdlPvm(ptr noundef %23, i64 noundef %30) #16
  br label %_ZN4SHA1D2Ev.exit6

_ZN4SHA1D2Ev.exit6:                               ; preds = %_ZNKSt7__cxx1112basic_stringIcSt11char_traitsIcESaIcEE11_M_is_localEv.exit.i.i.i4, %_ZNKSt7__cxx1112basic_stringIcSt11char_traitsIcESaIcEE11_M_is_localEv.exit.thread.i.i.i5, %18
  %.pn = phi { ptr, i32 } [ %19, %18 ], [ %21, %_ZNKSt7__cxx1112basic_stringIcSt11char_traitsIcESaIcEE11_M_is_localEv.exit.thread.i.i.i5 ], [ %21, %_ZNKSt7__cxx1112basic_stringIcSt11char_traitsIcESaIcEE11_M_is_localEv.exit.i.i.i4 ]
  call void @llvm.lifetime.end.p0(i64 64, ptr nonnull %4) #17
  call void @_ZNSt14basic_ifstreamIcSt11char_traitsIcEED1Ev(ptr noundef nonnull align 8 dereferenceable(256) %3) #17
  call void @llvm.lifetime.end.p0(i64 520, ptr nonnull %3) #17
  resume { ptr, i32 } %.pn
}